target datalayout = "e-m:e-p270:32:32-p271:32:32-p272:64:64-i64:64-i128:128-f80:128-n8:16:32:64-S128"
target triple = "x86_64-pc-linux-gnu"

%"class.icu_77::StringPiece" = type <{ ptr, i32, [4 x i8] }>

; Function Attrs: mustprogress nounwind uwtable
define void @_ZN6icu_7711StringPieceC2ERKS0_ii(ptr noundef nonnull align 8 dereferenceable(12) %0, ptr noundef nonnull align 8 dereferenceable(12) %1, i32 noundef %2, i32 noundef %3) unnamed_addr #0 align 2 {
  %5 = alloca ptr, align 8
  %6 = alloca ptr, align 8
  %7 = alloca i32, align 4
  %8 = alloca i32, align 4
  store ptr %0, ptr %5, align 8, !tbaa !3
  store ptr %1, ptr %6, align 8, !tbaa !3
  store i32 %2, ptr %7, align 4, !tbaa !14
  store i32 %3, ptr %8, align 4, !tbaa !14
  %9 = load ptr, ptr %5, align 8
  %10 = load i32, ptr %7, align 4, !tbaa !14
  %11 = icmp slt i32 %10, 0
  br i1 %11, label %12, label %13

12:                                               ; preds = %4
  store i32 0, ptr %7, align 4, !tbaa !14
  br label %24

13:                                               ; preds = %4
  %14 = load i32, ptr %7, align 4, !tbaa !14
  %15 = load ptr, ptr %6, align 8, !tbaa !3
  %16 = getelementptr inbounds nuw %"class.icu_77::StringPiece", ptr %15, i32 0, i32 1
  %17 = load i32, ptr %16, align 8, !tbaa !13
  %18 = icmp sgt i32 %14, %17
  br i1 %18, label %19, label %23

19:                                               ; preds = %13
  %20 = load ptr, ptr %6, align 8, !tbaa !3
  %21 = getelementptr inbounds nuw %"class.icu_77::StringPiece", ptr %20, i32 0, i32 1
  %22 = load i32, ptr %21, align 8, !tbaa !13
  store i32 %22, ptr %7, align 4, !tbaa !14
  br label %23

23:                                               ; preds = %19, %13
  br label %24

24:                                               ; preds = %23, %12
  %25 = load i32, ptr %8, align 4, !tbaa !14
  %26 = icmp slt i32 %25, 0
  br i1 %26, label %27, label %28

27:                                               ; preds = %24
  store i32 0, ptr %8, align 4, !tbaa !14
  br label %43

28:                                               ; preds = %24
  %29 = load i32, ptr %8, align 4, !tbaa !14
  %30 = load ptr, ptr %6, align 8, !tbaa !3
  %31 = getelementptr inbounds nuw %"class.icu_77::StringPiece", ptr %30, i32 0, i32 1
  %32 = load i32, ptr %31, align 8, !tbaa !13
  %33 = load i32, ptr %7, align 4, !tbaa !14
  %34 = sub nsw i32 %32, %33
  %35 = icmp sgt i32 %29, %34
  br i1 %35, label %36, label %42

36:                                               ; preds = %28
  %37 = load ptr, ptr %6, align 8, !tbaa !3
  %38 = getelementptr inbounds nuw %"class.icu_77::StringPiece", ptr %37, i32 0, i32 1
  %39 = load i32, ptr %38, align 8, !tbaa !13
  %40 = load i32, ptr %7, align 4, !tbaa !14
  %41 = sub nsw i32 %39, %40
  store i32 %41, ptr %8, align 4, !tbaa !14
  br label %42

42:                                               ; preds = %36, %28
  br label %43

43:                                               ; preds = %42, %27
  %44 = load ptr, ptr %6, align 8, !tbaa !3
  %45 = getelementptr inbounds nuw %"class.icu_77::StringPiece", ptr %44, i32 0, i32 0
  %46 = load ptr, ptr %45, align 8, !tbaa !10
  %47 = load i32, ptr %7, align 4, !tbaa !14
  %48 = sext i32 %47 to i64
  %49 = getelementptr inbounds i8, ptr %46, i64 %48
  %50 = getelementptr inbounds nuw %"class.icu_77::StringPiece", ptr %9, i32 0, i32 0
  store ptr %49, ptr %50, align 8, !tbaa !10
  %51 = load i32, ptr %8, align 4, !tbaa !14
  %52 = getelementptr inbounds nuw %"class.icu_77::StringPiece", ptr %9, i32 0, i32 1
  store i32 %51, ptr %52, align 8, !tbaa !13
  ret void
}