; Function Attrs: mustprogress nofree norecurse nosync nounwind willreturn memory(argmem: readwrite) uwtable
define void @_ZN6icu_7711StringPieceC2ERKS0_ii(ptr noundef nonnull writeonly align 8 captures(none) dereferenceable(12) initializes((0, 12)) %0, ptr noundef nonnull readonly align 8 captures(none) dereferenceable(12) %1, i32 noundef %2, i32 noundef %3) unnamed_addr #2 align 2 {
  %5 = icmp slt i32 %2, 0
  %6 = getelementptr inbounds nuw i8, ptr %1, i64 8
  %7 = load i32, ptr %6, align 8
  %spec.select = tail call i32 @llvm.smin.i32(i32 %2, i32 %7)
  %.013 = select i1 %5, i32 0, i32 %spec.select
  %8 = icmp slt i32 %3, 0
  %9 = sub nsw i32 %7, %.013
  %spec.select18 = tail call i32 @llvm.smin.i32(i32 %3, i32 %9)
  %.0 = select i1 %8, i32 0, i32 %spec.select18
  %10 = load ptr, ptr %1, align 8, !tbaa !3
  %11 = sext i32 %.013 to i64
  %12 = getelementptr inbounds i8, ptr %10, i64 %11
  store ptr %12, ptr %0, align 8, !tbaa !3
  %13 = getelementptr inbounds nuw i8, ptr %0, i64 8
  store i32 %.0, ptr %13, align 8, !tbaa !10
  ret void
}